; ModuleID = 'source-C-CXX/11/1267.cpp'
source_filename = "source-C-CXX/11/1267.cpp"
target datalayout = "e-m:e-p270:32:32-p271:32:32-p272:64:64-i64:64-f80:128-n8:16:32:64-S128"
target triple = "x86_64-pc-linux-gnu"

%"class.std::ios_base::Init" = type { i8 }
%"class.std::basic_istream" = type { i32 (...)**, i64, %"class.std::basic_ios" }
%"class.std::basic_ios" = type { %"class.std::ios_base", %"class.std::basic_ostream"*, i8, i8, %"class.std::basic_streambuf"*, %"class.std::ctype"*, %"class.std::num_put"*, %"class.std::num_get"* }
%"class.std::ios_base" = type { i32 (...)**, i64, i64, i32, i32, i32, %"struct.std::ios_base::_Callback_list"*, %"struct.std::ios_base::_Words", [8 x %"struct.std::ios_base::_Words"], i32, %"struct.std::ios_base::_Words"*, %"class.std::locale" }
%"struct.std::ios_base::_Callback_list" = type { %"struct.std::ios_base::_Callback_list"*, void (i32, %"class.std::ios_base"*, i32)*, i32, i32 }
%"struct.std::ios_base::_Words" = type { i8*, i64 }
%"class.std::locale" = type { %"class.std::locale::_Impl"* }
%"class.std::locale::_Impl" = type { i32, %"class.std::locale::facet"**, i64, %"class.std::locale::facet"**, i8** }
%"class.std::locale::facet" = type <{ i32 (...)**, i32, [4 x i8] }>
%"class.std::basic_ostream" = type { i32 (...)**, %"class.std::basic_ios" }
%"class.std::basic_streambuf" = type { i32 (...)**, i8*, i8*, i8*, i8*, i8*, i8*, %"class.std::locale" }
%"class.std::ctype" = type <{ %"class.std::locale::facet.base", [4 x i8], %struct.__locale_struct*, i8, [7 x i8], i32*, i32*, i16*, i8, [256 x i8], [256 x i8], i8, [6 x i8] }>
%"class.std::locale::facet.base" = type <{ i32 (...)**, i32 }>
%struct.__locale_struct = type { [13 x %struct.__locale_data*], i16*, i32*, i32*, [13 x i8*] }
%struct.__locale_data = type opaque
%"class.std::num_put" = type { %"class.std::locale::facet.base", [4 x i8] }
%"class.std::num_get" = type { %"class.std::locale::facet.base", [4 x i8] }

@_ZStL8__ioinit = internal global %"class.std::ios_base::Init" zeroinitializer, align 1
@__dso_handle = external hidden global i8
@_ZSt3cin = external global %"class.std::basic_istream", align 8
@_ZSt4cout = external global %"class.std::basic_ostream", align 8
@llvm.global_ctors = appending global [1 x { i32, void ()*, i8* }] [{ i32, void ()*, i8* } { i32 65535, void ()* @_GLOBAL__sub_I_1267.cpp, i8* null }]

declare void @_ZNSt8ios_base4InitC1Ev(%"class.std::ios_base::Init"* nonnull align 1 dereferenceable(1)) unnamed_addr #0

; Function Attrs: nounwind
declare void @_ZNSt8ios_base4InitD1Ev(%"class.std::ios_base::Init"* nonnull align 1 dereferenceable(1)) unnamed_addr #1

; Function Attrs: nofree nounwind
declare i32 @__cxa_atexit(void (i8*)*, i8*, i8*) local_unnamed_addr #2

; Function Attrs: mustprogress norecurse sspstrong uwtable
define dso_local i32 @main() local_unnamed_addr #3 {
  %1 = alloca [16 x i32], align 16
  %2 = alloca i32, align 4
  %3 = bitcast [16 x i32]* %1 to i8*
  call void @llvm.lifetime.start.p0i8(i64 64, i8* nonnull %3) #8
  %4 = bitcast i32* %2 to i8*
  call void @llvm.lifetime.start.p0i8(i64 4, i8* nonnull %4) #8
  br label %5

5:                                                ; preds = %180, %0
  %6 = call nonnull align 8 dereferenceable(16) %"class.std::basic_istream"* @_ZNSirsERi(%"class.std::basic_istream"* nonnull align 8 dereferenceable(16) @_ZSt3cin, i32* nonnull align 4 dereferenceable(4) %2)
  %7 = bitcast %"class.std::basic_istream"* %6 to i8**
  %8 = load i8*, i8** %7, align 8, !tbaa !5
  %9 = getelementptr i8, i8* %8, i64 -24
  %10 = bitcast i8* %9 to i64*
  %11 = load i64, i64* %10, align 8
  %12 = bitcast %"class.std::basic_istream"* %6 to i8*
  %13 = add nsw i64 %11, 32
  %14 = getelementptr inbounds i8, i8* %12, i64 %13
  %15 = bitcast i8* %14 to i32*
  %16 = load i32, i32* %15, align 8, !tbaa !8
  %17 = and i32 %16, 5
  %18 = icmp eq i32 %17, 0
  br i1 %18, label %19, label %42

19:                                               ; preds = %5, %24
  %20 = phi i64 [ %26, %24 ], [ 0, %5 ]
  %21 = load i32, i32* %2, align 4, !tbaa !18
  %22 = add i32 %21, 1
  %23 = icmp ult i32 %22, 2
  br i1 %23, label %45, label %24

24:                                               ; preds = %19
  %25 = getelementptr inbounds [16 x i32], [16 x i32]* %1, i64 0, i64 %20
  store i32 %21, i32* %25, align 4, !tbaa !18
  %26 = add nuw i64 %20, 1
  %27 = call nonnull align 8 dereferenceable(16) %"class.std::basic_istream"* @_ZNSirsERi(%"class.std::basic_istream"* nonnull align 8 dereferenceable(16) @_ZSt3cin, i32* nonnull align 4 dereferenceable(4) %2)
  %28 = bitcast %"class.std::basic_istream"* %27 to i8**
  %29 = load i8*, i8** %28, align 8, !tbaa !5
  %30 = getelementptr i8, i8* %29, i64 -24
  %31 = bitcast i8* %30 to i64*
  %32 = load i64, i64* %31, align 8
  %33 = bitcast %"class.std::basic_istream"* %27 to i8*
  %34 = add nsw i64 %32, 32
  %35 = getelementptr inbounds i8, i8* %33, i64 %34
  %36 = bitcast i8* %35 to i32*
  %37 = load i32, i32* %36, align 8, !tbaa !8
  %38 = and i32 %37, 5
  %39 = icmp eq i32 %38, 0
  br i1 %39, label %19, label %40, !llvm.loop !19

40:                                               ; preds = %24
  %41 = trunc i64 %26 to i32
  br label %42

42:                                               ; preds = %40, %5
  %43 = phi i32 [ 0, %5 ], [ %41, %40 ]
  %44 = load i32, i32* %2, align 4, !tbaa !18
  br label %47

45:                                               ; preds = %19
  %46 = trunc i64 %20 to i32
  br label %47

47:                                               ; preds = %45, %42
  %48 = phi i32 [ %43, %42 ], [ %46, %45 ]
  %49 = phi i32 [ %44, %42 ], [ %21, %45 ]
  %50 = icmp eq i32 %49, -1
  br i1 %50, label %184, label %51

51:                                               ; preds = %47
  %52 = icmp eq i32 %48, 0
  br i1 %52, label %152, label %53

53:                                               ; preds = %51
  %54 = zext i32 %48 to i64
  %55 = and i64 %54, 4294967288
  %56 = add nsw i64 %55, -8
  %57 = lshr exact i64 %56, 3
  %58 = add nuw nsw i64 %57, 1
  %59 = icmp ult i32 %48, 8
  %60 = and i64 %54, 4294967288
  %61 = and i64 %58, 1
  %62 = icmp eq i64 %56, 0
  %63 = and i64 %58, 4611686018427387902
  %64 = icmp eq i64 %61, 0
  %65 = icmp eq i64 %60, %54
  br label %66

66:                                               ; preds = %53, %148
  %67 = phi i64 [ 0, %53 ], [ %150, %148 ]
  %68 = phi i32 [ 0, %53 ], [ %149, %148 ]
  %69 = getelementptr inbounds [16 x i32], [16 x i32]* %1, i64 0, i64 %67
  %70 = load i32, i32* %69, align 4, !tbaa !18
  %71 = shl nsw i32 %70, 1
  br i1 %59, label %135, label %72

72:                                               ; preds = %66
  %73 = insertelement <4 x i32> <i32 poison, i32 0, i32 0, i32 0>, i32 %68, i32 0
  %74 = insertelement <4 x i32> poison, i32 %71, i32 0
  %75 = shufflevector <4 x i32> %74, <4 x i32> poison, <4 x i32> zeroinitializer
  %76 = insertelement <4 x i32> poison, i32 %71, i32 0
  %77 = shufflevector <4 x i32> %76, <4 x i32> poison, <4 x i32> zeroinitializer
  br i1 %62, label %111, label %78

78:                                               ; preds = %72, %78
  %79 = phi i64 [ %108, %78 ], [ 0, %72 ]
  %80 = phi <4 x i32> [ %106, %78 ], [ %73, %72 ]
  %81 = phi <4 x i32> [ %107, %78 ], [ zeroinitializer, %72 ]
  %82 = phi i64 [ %109, %78 ], [ %63, %72 ]
  %83 = getelementptr inbounds [16 x i32], [16 x i32]* %1, i64 0, i64 %79
  %84 = bitcast i32* %83 to <4 x i32>*
  %85 = load <4 x i32>, <4 x i32>* %84, align 16, !tbaa !18
  %86 = getelementptr inbounds i32, i32* %83, i64 4
  %87 = bitcast i32* %86 to <4 x i32>*
  %88 = load <4 x i32>, <4 x i32>* %87, align 16, !tbaa !18
  %89 = icmp eq <4 x i32> %85, %75
  %90 = icmp eq <4 x i32> %88, %77
  %91 = zext <4 x i1> %89 to <4 x i32>
  %92 = zext <4 x i1> %90 to <4 x i32>
  %93 = add <4 x i32> %80, %91
  %94 = add <4 x i32> %81, %92
  %95 = or i64 %79, 8
  %96 = getelementptr inbounds [16 x i32], [16 x i32]* %1, i64 0, i64 %95
  %97 = bitcast i32* %96 to <4 x i32>*
  %98 = load <4 x i32>, <4 x i32>* %97, align 16, !tbaa !18
  %99 = getelementptr inbounds i32, i32* %96, i64 4
  %100 = bitcast i32* %99 to <4 x i32>*
  %101 = load <4 x i32>, <4 x i32>* %100, align 16, !tbaa !18
  %102 = icmp eq <4 x i32> %98, %75
  %103 = icmp eq <4 x i32> %101, %77
  %104 = zext <4 x i1> %102 to <4 x i32>
  %105 = zext <4 x i1> %103 to <4 x i32>
  %106 = add <4 x i32> %93, %104
  %107 = add <4 x i32> %94, %105
  %108 = add nuw i64 %79, 16
  %109 = add i64 %82, -2
  %110 = icmp eq i64 %109, 0
  br i1 %110, label %111, label %78, !llvm.loop !21

111:                                              ; preds = %78, %72
  %112 = phi <4 x i32> [ undef, %72 ], [ %106, %78 ]
  %113 = phi <4 x i32> [ undef, %72 ], [ %107, %78 ]
  %114 = phi i64 [ 0, %72 ], [ %108, %78 ]
  %115 = phi <4 x i32> [ %73, %72 ], [ %106, %78 ]
  %116 = phi <4 x i32> [ zeroinitializer, %72 ], [ %107, %78 ]
  br i1 %64, label %130, label %117

117:                                              ; preds = %111
  %118 = getelementptr inbounds [16 x i32], [16 x i32]* %1, i64 0, i64 %114
  %119 = getelementptr inbounds i32, i32* %118, i64 4
  %120 = bitcast i32* %119 to <4 x i32>*
  %121 = load <4 x i32>, <4 x i32>* %120, align 16, !tbaa !18
  %122 = icmp eq <4 x i32> %121, %77
  %123 = zext <4 x i1> %122 to <4 x i32>
  %124 = add <4 x i32> %116, %123
  %125 = bitcast i32* %118 to <4 x i32>*
  %126 = load <4 x i32>, <4 x i32>* %125, align 16, !tbaa !18
  %127 = icmp eq <4 x i32> %126, %75
  %128 = zext <4 x i1> %127 to <4 x i32>
  %129 = add <4 x i32> %115, %128
  br label %130

130:                                              ; preds = %111, %117
  %131 = phi <4 x i32> [ %112, %111 ], [ %129, %117 ]
  %132 = phi <4 x i32> [ %113, %111 ], [ %124, %117 ]
  %133 = add <4 x i32> %132, %131
  %134 = call i32 @llvm.vector.reduce.add.v4i32(<4 x i32> %133)
  br i1 %65, label %148, label %135

135:                                              ; preds = %66, %130
  %136 = phi i64 [ 0, %66 ], [ %60, %130 ]
  %137 = phi i32 [ %68, %66 ], [ %134, %130 ]
  br label %138

138:                                              ; preds = %135, %138
  %139 = phi i64 [ %146, %138 ], [ %136, %135 ]
  %140 = phi i32 [ %145, %138 ], [ %137, %135 ]
  %141 = getelementptr inbounds [16 x i32], [16 x i32]* %1, i64 0, i64 %139
  %142 = load i32, i32* %141, align 4, !tbaa !18
  %143 = icmp eq i32 %142, %71
  %144 = zext i1 %143 to i32
  %145 = add nsw i32 %140, %144
  %146 = add nuw nsw i64 %139, 1
  %147 = icmp eq i64 %146, %54
  br i1 %147, label %148, label %138, !llvm.loop !23

148:                                              ; preds = %138, %130
  %149 = phi i32 [ %134, %130 ], [ %145, %138 ]
  %150 = add nuw nsw i64 %67, 1
  %151 = icmp eq i64 %150, %54
  br i1 %151, label %152, label %66, !llvm.loop !25

152:                                              ; preds = %148, %51
  %153 = phi i32 [ 0, %51 ], [ %149, %148 ]
  %154 = call nonnull align 8 dereferenceable(8) %"class.std::basic_ostream"* @_ZNSolsEi(%"class.std::basic_ostream"* nonnull align 8 dereferenceable(8) @_ZSt4cout, i32 %153)
  %155 = bitcast %"class.std::basic_ostream"* %154 to i8**
  %156 = load i8*, i8** %155, align 8, !tbaa !5
  %157 = getelementptr i8, i8* %156, i64 -24
  %158 = bitcast i8* %157 to i64*
  %159 = load i64, i64* %158, align 8
  %160 = bitcast %"class.std::basic_ostream"* %154 to i8*
  %161 = add nsw i64 %159, 240
  %162 = getelementptr inbounds i8, i8* %160, i64 %161
  %163 = bitcast i8* %162 to %"class.std::ctype"**
  %164 = load %"class.std::ctype"*, %"class.std::ctype"** %163, align 8, !tbaa !26
  %165 = icmp eq %"class.std::ctype"* %164, null
  br i1 %165, label %166, label %167

166:                                              ; preds = %152
  call void @_ZSt16__throw_bad_castv() #9
  unreachable

167:                                              ; preds = %152
  %168 = getelementptr inbounds %"class.std::ctype", %"class.std::ctype"* %164, i64 0, i32 8
  %169 = load i8, i8* %168, align 8, !tbaa !29
  %170 = icmp eq i8 %169, 0
  br i1 %170, label %174, label %171

171:                                              ; preds = %167
  %172 = getelementptr inbounds %"class.std::ctype", %"class.std::ctype"* %164, i64 0, i32 9, i64 10
  %173 = load i8, i8* %172, align 1, !tbaa !31
  br label %180

174:                                              ; preds = %167
  call void @_ZNKSt5ctypeIcE13_M_widen_initEv(%"class.std::ctype"* nonnull align 8 dereferenceable(570) %164)
  %175 = bitcast %"class.std::ctype"* %164 to i8 (%"class.std::ctype"*, i8)***
  %176 = load i8 (%"class.std::ctype"*, i8)**, i8 (%"class.std::ctype"*, i8)*** %175, align 8, !tbaa !5
  %177 = getelementptr inbounds i8 (%"class.std::ctype"*, i8)*, i8 (%"class.std::ctype"*, i8)** %176, i64 6
  %178 = load i8 (%"class.std::ctype"*, i8)*, i8 (%"class.std::ctype"*, i8)** %177, align 8
  %179 = call signext i8 %178(%"class.std::ctype"* nonnull align 8 dereferenceable(570) %164, i8 signext 10)
  br label %180

180:                                              ; preds = %171, %174
  %181 = phi i8 [ %173, %171 ], [ %179, %174 ]
  %182 = call nonnull align 8 dereferenceable(8) %"class.std::basic_ostream"* @_ZNSo3putEc(%"class.std::basic_ostream"* nonnull align 8 dereferenceable(8) %154, i8 signext %181)
  %183 = call nonnull align 8 dereferenceable(8) %"class.std::basic_ostream"* @_ZNSo5flushEv(%"class.std::basic_ostream"* nonnull align 8 dereferenceable(8) %182)
  br label %5, !llvm.loop !32

184:                                              ; preds = %47
  call void @llvm.lifetime.end.p0i8(i64 4, i8* nonnull %4) #8
  call void @llvm.lifetime.end.p0i8(i64 64, i8* nonnull %3) #8
  ret i32 0
}

; Function Attrs: argmemonly mustprogress nofree nosync nounwind willreturn
declare void @llvm.lifetime.start.p0i8(i64 immarg, i8* nocapture) #4

declare nonnull align 8 dereferenceable(16) %"class.std::basic_istream"* @_ZNSirsERi(%"class.std::basic_istream"* nonnull align 8 dereferenceable(16), i32* nonnull align 4 dereferenceable(4)) local_unnamed_addr #0

declare nonnull align 8 dereferenceable(8) %"class.std::basic_ostream"* @_ZNSolsEi(%"class.std::basic_ostream"* nonnull align 8 dereferenceable(8), i32) local_unnamed_addr #0

; Function Attrs: argmemonly mustprogress nofree nosync nounwind willreturn
declare void @llvm.lifetime.end.p0i8(i64 immarg, i8* nocapture) #4

declare nonnull align 8 dereferenceable(8) %"class.std::basic_ostream"* @_ZNSo3putEc(%"class.std::basic_ostream"* nonnull align 8 dereferenceable(8), i8 signext) local_unnamed_addr #0

declare nonnull align 8 dereferenceable(8) %"class.std::basic_ostream"* @_ZNSo5flushEv(%"class.std::basic_ostream"* nonnull align 8 dereferenceable(8)) local_unnamed_addr #0

; Function Attrs: noreturn
declare void @_ZSt16__throw_bad_castv() local_unnamed_addr #5

declare void @_ZNKSt5ctypeIcE13_M_widen_initEv(%"class.std::ctype"* nonnull align 8 dereferenceable(570)) local_unnamed_addr #0

; Function Attrs: sspstrong uwtable
define internal void @_GLOBAL__sub_I_1267.cpp() #6 section ".text.startup" {
  tail call void @_ZNSt8ios_base4InitC1Ev(%"class.std::ios_base::Init"* nonnull align 1 dereferenceable(1) @_ZStL8__ioinit)
  %1 = tail call i32 @__cxa_atexit(void (i8*)* bitcast (void (%"class.std::ios_base::Init"*)* @_ZNSt8ios_base4InitD1Ev to void (i8*)*), i8* getelementptr inbounds (%"class.std::ios_base::Init", %"class.std::ios_base::Init"* @_ZStL8__ioinit, i64 0, i32 0), i8* nonnull @__dso_handle) #8
  ret void
}

; Function Attrs: nofree nosync nounwind readnone willreturn
declare i32 @llvm.vector.reduce.add.v4i32(<4 x i32>) #7


!llvm.module.flags = !{!0, !1, !2, !3}
!llvm.ident = !{!4}

!0 = !{i32 1, !"wchar_size", i32 4}
!1 = !{i32 7, !"PIC Level", i32 2}
!2 = !{i32 7, !"PIE Level", i32 2}
!3 = !{i32 7, !"uwtable", i32 1}
!4 = !{!"clang version 13.0.0"}
!5 = !{!6, !6, i64 0}
!6 = !{!"vtable pointer", !7, i64 0}
!7 = !{!"Simple C++ TBAA"}
!8 = !{!9, !13, i64 32}
!9 = !{!"_ZTSSt8ios_base", !10, i64 8, !10, i64 16, !12, i64 24, !13, i64 28, !13, i64 32, !14, i64 40, !15, i64 48, !11, i64 64, !16, i64 192, !14, i64 200, !17, i64 208}
!10 = !{!"long", !11, i64 0}
!11 = !{!"omnipotent char", !7, i64 0}
!12 = !{!"_ZTSSt13_Ios_Fmtflags", !11, i64 0}
!13 = !{!"_ZTSSt12_Ios_Iostate", !11, i64 0}
!14 = !{!"any pointer", !11, i64 0}
!15 = !{!"_ZTSNSt8ios_base6_WordsE", !14, i64 0, !10, i64 8}
!16 = !{!"int", !11, i64 0}
!17 = !{!"_ZTSSt6locale", !14, i64 0}
!18 = !{!16, !16, i64 0}
!19 = distinct !{!19, !20}
!20 = !{!"llvm.loop.mustprogress"}
!21 = distinct !{!21, !20, !22}
!22 = !{!"llvm.loop.isvectorized", i32 1}
!23 = distinct !{!23, !20, !24, !22}
!24 = !{!"llvm.loop.unroll.runtime.disable"}
!25 = distinct !{!25, !20}
!26 = !{!27, !14, i64 240}
!27 = !{!"_ZTSSt9basic_iosIcSt11char_traitsIcEE", !14, i64 216, !11, i64 224, !28, i64 225, !14, i64 232, !14, i64 240, !14, i64 248, !14, i64 256}
!28 = !{!"bool", !11, i64 0}
!29 = !{!30, !11, i64 56}
!30 = !{!"_ZTSSt5ctypeIcE", !14, i64 16, !28, i64 24, !14, i64 32, !14, i64 40, !14, i64 48, !11, i64 56, !11, i64 57, !11, i64 313, !11, i64 569}
!31 = !{!11, !11, i64 0}
!32 = distinct !{!32, !20}
